target datalayout = "e-m:e-p270:32:32-p271:32:32-p272:64:64-i64:64-i128:128-f80:128-n8:16:32:64-S128"
target triple = "x86_64-pc-linux-gnu"

%struct.CVodeMemRec = type { ptr, double, ptr, ptr, i32, i32, double, double, ptr, i32, i32, ptr, ptr, i32, [13 x ptr], ptr, ptr, ptr, ptr, ptr, ptr, ptr, ptr, ptr, i32, i32, double, i32, i32, i32, i32, i32, double, double, double, double, double, double, double, double, [14 x double], [6 x double], [13 x double], double, double, double, double, double, double, double, i32, double, i32, i64, i32, i32, i32, double, double, double, double, double, double, double, double, double, double, double, double, i64, i32, i64, i64, i64, i64, i64, i64, i64, i32, double, double, double, i64, i64, i64, i64, ptr, i32, ptr, i32, ptr, ptr, ptr, ptr, ptr, i64, double, i32, i64, double, double, double, i32, double, i32, i32, i32, i32, i32, ptr, i64, i32, [6 x [4 x double]], i32, i64, ptr, i32, ptr, ptr, double, double, double, ptr, ptr, ptr, double, double, i32, i32, i64, ptr, i32, ptr, i32, i32, [13 x double], [13 x double], [13 x ptr], i32 }
%struct.CVLsMemRec = type { i32, i32, i32, ptr, ptr, i32, double, i32, double, double, ptr, ptr, ptr, ptr, ptr, ptr, ptr, i64, i64, i64, i64, i64, i64, i64, i64, i64, i64, double, ptr, ptr, ptr, ptr, i32, ptr, ptr, ptr, ptr, i32, ptr, ptr, i32 }

; Function Attrs: nounwind uwtable
define i32 @cvLsFree(ptr noundef %0) #0 {
  %2 = alloca i32, align 4
  %3 = alloca ptr, align 8
  %4 = alloca ptr, align 8
  %5 = alloca i32, align 4
  store ptr %0, ptr %3, align 8, !tbaa !11
  call void @llvm.lifetime.start.p0(i64 8, ptr %4) #7
  %6 = load ptr, ptr %3, align 8, !tbaa !11
  %7 = icmp eq ptr %6, null
  br i1 %7, label %8, label %9

8:                                                ; preds = %1
  store i32 0, ptr %2, align 4
  store i32 1, ptr %5, align 4
  br label %72

9:                                                ; preds = %1
  %10 = load ptr, ptr %3, align 8, !tbaa !11
  %11 = getelementptr inbounds nuw %struct.CVodeMemRec, ptr %10, i32 0, i32 94
  %12 = load ptr, ptr %11, align 8, !tbaa !79
  %13 = icmp eq ptr %12, null
  br i1 %13, label %14, label %15

14:                                               ; preds = %9
  store i32 0, ptr %2, align 4
  store i32 1, ptr %5, align 4
  br label %72

15:                                               ; preds = %9
  %16 = load ptr, ptr %3, align 8, !tbaa !11
  %17 = getelementptr inbounds nuw %struct.CVodeMemRec, ptr %16, i32 0, i32 94
  %18 = load ptr, ptr %17, align 8, !tbaa !79
  store ptr %18, ptr %4, align 8, !tbaa !43
  %19 = load ptr, ptr %4, align 8, !tbaa !43
  %20 = getelementptr inbounds nuw %struct.CVLsMemRec, ptr %19, i32 0, i32 13
  %21 = load ptr, ptr %20, align 8, !tbaa !74
  %22 = icmp ne ptr %21, null
  br i1 %22, label %23, label %29

23:                                               ; preds = %15
  %24 = load ptr, ptr %4, align 8, !tbaa !43
  %25 = getelementptr inbounds nuw %struct.CVLsMemRec, ptr %24, i32 0, i32 13
  %26 = load ptr, ptr %25, align 8, !tbaa !74
  call void @N_VDestroy(ptr noundef %26)
  %27 = load ptr, ptr %4, align 8, !tbaa !43
  %28 = getelementptr inbounds nuw %struct.CVLsMemRec, ptr %27, i32 0, i32 13
  store ptr null, ptr %28, align 8, !tbaa !74
  br label %29

29:                                               ; preds = %23, %15
  %30 = load ptr, ptr %4, align 8, !tbaa !43
  %31 = getelementptr inbounds nuw %struct.CVLsMemRec, ptr %30, i32 0, i32 14
  %32 = load ptr, ptr %31, align 8, !tbaa !75
  %33 = icmp ne ptr %32, null
  br i1 %33, label %34, label %40

34:                                               ; preds = %29
  %35 = load ptr, ptr %4, align 8, !tbaa !43
  %36 = getelementptr inbounds nuw %struct.CVLsMemRec, ptr %35, i32 0, i32 14
  %37 = load ptr, ptr %36, align 8, !tbaa !75
  call void @N_VDestroy(ptr noundef %37)
  %38 = load ptr, ptr %4, align 8, !tbaa !43
  %39 = getelementptr inbounds nuw %struct.CVLsMemRec, ptr %38, i32 0, i32 14
  store ptr null, ptr %39, align 8, !tbaa !75
  br label %40

40:                                               ; preds = %34, %29
  %41 = load ptr, ptr %4, align 8, !tbaa !43
  %42 = getelementptr inbounds nuw %struct.CVLsMemRec, ptr %41, i32 0, i32 12
  %43 = load ptr, ptr %42, align 8, !tbaa !73
  %44 = icmp ne ptr %43, null
  br i1 %44, label %45, label %51

45:                                               ; preds = %40
  %46 = load ptr, ptr %4, align 8, !tbaa !43
  %47 = getelementptr inbounds nuw %struct.CVLsMemRec, ptr %46, i32 0, i32 12
  %48 = load ptr, ptr %47, align 8, !tbaa !73
  call void @SUNMatDestroy(ptr noundef %48)
  %49 = load ptr, ptr %4, align 8, !tbaa !43
  %50 = getelementptr inbounds nuw %struct.CVLsMemRec, ptr %49, i32 0, i32 12
  store ptr null, ptr %50, align 8, !tbaa !73
  br label %51

51:                                               ; preds = %45, %40
  %52 = load ptr, ptr %4, align 8, !tbaa !43
  %53 = getelementptr inbounds nuw %struct.CVLsMemRec, ptr %52, i32 0, i32 15
  store ptr null, ptr %53, align 8, !tbaa !87
  %54 = load ptr, ptr %4, align 8, !tbaa !43
  %55 = getelementptr inbounds nuw %struct.CVLsMemRec, ptr %54, i32 0, i32 16
  store ptr null, ptr %55, align 8, !tbaa !88
  %56 = load ptr, ptr %4, align 8, !tbaa !43
  %57 = getelementptr inbounds nuw %struct.CVLsMemRec, ptr %56, i32 0, i32 11
  store ptr null, ptr %57, align 8, !tbaa !72
  %58 = load ptr, ptr %4, align 8, !tbaa !43
  %59 = getelementptr inbounds nuw %struct.CVLsMemRec, ptr %58, i32 0, i32 30
  %60 = load ptr, ptr %59, align 8, !tbaa !63
  %61 = icmp ne ptr %60, null
  br i1 %61, label %62, label %68

62:                                               ; preds = %51
  %63 = load ptr, ptr %4, align 8, !tbaa !43
  %64 = getelementptr inbounds nuw %struct.CVLsMemRec, ptr %63, i32 0, i32 30
  %65 = load ptr, ptr %64, align 8, !tbaa !63
  %66 = load ptr, ptr %3, align 8, !tbaa !11
  %67 = call i32 %65(ptr noundef %66)
  br label %68

68:                                               ; preds = %62, %51
  %69 = load ptr, ptr %3, align 8, !tbaa !11
  %70 = getelementptr inbounds nuw %struct.CVodeMemRec, ptr %69, i32 0, i32 94
  %71 = load ptr, ptr %70, align 8, !tbaa !79
  call void @free(ptr noundef %71) #7
  store i32 0, ptr %2, align 4
  store i32 1, ptr %5, align 4
  br label %72

72:                                               ; preds = %68, %14, %8
  call void @llvm.lifetime.end.p0(i64 8, ptr %4) #7
  %73 = load i32, ptr %2, align 4
  ret i32 %73
}